target datalayout = "e-m:e-p270:32:32-p271:32:32-p272:64:64-i64:64-i128:128-f80:128-n8:16:32:64-S128"
target triple = "x86_64-pc-linux-gnu"

%struct.quic_lcidm_st = type { ptr, ptr, ptr, i64 }
%struct.quic_lcid_st = type { %struct.quic_conn_id_st, i64, ptr, i8 }
%struct.quic_conn_id_st = type { i8, [20 x i8] }
%struct.quic_lcidm_conn_st = type { i64, ptr, ptr, ptr, i64, i8 }

@.str = private unnamed_addr constant [33 x i8] c"../openssl/ssl/quic/quic_lcidm.c\00", align 1

; Function Attrs: inlinehint nounwind uwtable
define internal ptr @lh_QUIC_LCID_delete(ptr noundef %0, ptr noundef %1) #3 {
  %3 = alloca ptr, align 8
  %4 = alloca ptr, align 8
  store ptr %0, ptr %3, align 8, !tbaa !30
  store ptr %1, ptr %4, align 8, !tbaa !20
  %5 = load ptr, ptr %3, align 8, !tbaa !30
  %6 = load ptr, ptr %4, align 8, !tbaa !20
  %7 = call ptr @OPENSSL_LH_delete(ptr noundef %5, ptr noundef %6)
  ret ptr %7
}

; Function Attrs: nounwind uwtable
define internal void @lcidm_delete_conn_lcid(ptr noundef %0, ptr noundef %1) #0 {
  %3 = alloca ptr, align 8
  %4 = alloca ptr, align 8
  store ptr %0, ptr %3, align 8, !tbaa !10
  store ptr %1, ptr %4, align 8, !tbaa !20
  %5 = load ptr, ptr %3, align 8, !tbaa !10
  %6 = getelementptr inbounds nuw %struct.quic_lcidm_st, ptr %5, i32 0, i32 1
  %7 = load ptr, ptr %6, align 8, !tbaa !12
  %8 = load ptr, ptr %4, align 8, !tbaa !20
  %9 = call ptr @lh_QUIC_LCID_delete(ptr noundef %7, ptr noundef %8)
  %10 = load ptr, ptr %4, align 8, !tbaa !20
  %11 = getelementptr inbounds nuw %struct.quic_lcid_st, ptr %10, i32 0, i32 2
  %12 = load ptr, ptr %11, align 8, !tbaa !41
  %13 = getelementptr inbounds nuw %struct.quic_lcidm_conn_st, ptr %12, i32 0, i32 1
  %14 = load ptr, ptr %13, align 8, !tbaa !40
  %15 = load ptr, ptr %4, align 8, !tbaa !20
  %16 = call ptr @lh_QUIC_LCID_delete(ptr noundef %14, ptr noundef %15)
  %17 = load ptr, ptr %4, align 8, !tbaa !20
  %18 = getelementptr inbounds nuw %struct.quic_lcid_st, ptr %17, i32 0, i32 2
  %19 = load ptr, ptr %18, align 8, !tbaa !41
  %20 = getelementptr inbounds nuw %struct.quic_lcidm_conn_st, ptr %19, i32 0, i32 0
  %21 = load i64, ptr %20, align 8, !tbaa !32
  %22 = add i64 %21, -1
  store i64 %22, ptr %20, align 8, !tbaa !32
  %23 = load ptr, ptr %4, align 8, !tbaa !20
  call void @CRYPTO_free(ptr noundef %23, ptr noundef @.str, i32 noundef 221)
  ret void
}

; Function Attrs: nounwind uwtable
define i32 @ossl_quic_lcidm_retire_odcid(ptr noundef %0, ptr noundef %1) #0 {
  %3 = alloca i32, align 4
  %4 = alloca ptr, align 8
  %5 = alloca ptr, align 8
  %6 = alloca ptr, align 8
  %7 = alloca i32, align 4
  store ptr %0, ptr %4, align 8, !tbaa !10
  store ptr %1, ptr %5, align 8, !tbaa !19
  call void @llvm.lifetime.start.p0(i64 8, ptr %6) #7
  %8 = load ptr, ptr %4, align 8, !tbaa !10
  %9 = load ptr, ptr %5, align 8, !tbaa !19
  %10 = call ptr @lcidm_upsert_conn(ptr noundef %8, ptr noundef %9)
  store ptr %10, ptr %6, align 8, !tbaa !27
  %11 = icmp eq ptr %10, null
  br i1 %11, label %12, label %13

12:                                               ; preds = %2
  store i32 0, ptr %3, align 4
  store i32 1, ptr %7, align 4
  br label %26

13:                                               ; preds = %2
  %14 = load ptr, ptr %6, align 8, !tbaa !27
  %15 = getelementptr inbounds nuw %struct.quic_lcidm_conn_st, ptr %14, i32 0, i32 3
  %16 = load ptr, ptr %15, align 8, !tbaa !39
  %17 = icmp eq ptr %16, null
  br i1 %17, label %18, label %19

18:                                               ; preds = %13
  store i32 0, ptr %3, align 4
  store i32 1, ptr %7, align 4
  br label %26

19:                                               ; preds = %13
  %20 = load ptr, ptr %4, align 8, !tbaa !10
  %21 = load ptr, ptr %6, align 8, !tbaa !27
  %22 = getelementptr inbounds nuw %struct.quic_lcidm_conn_st, ptr %21, i32 0, i32 3
  %23 = load ptr, ptr %22, align 8, !tbaa !39
  call void @lcidm_delete_conn_lcid(ptr noundef %20, ptr noundef %23)
  %24 = load ptr, ptr %6, align 8, !tbaa !27
  %25 = getelementptr inbounds nuw %struct.quic_lcidm_conn_st, ptr %24, i32 0, i32 3
  store ptr null, ptr %25, align 8, !tbaa !39
  store i32 1, ptr %3, align 4
  store i32 1, ptr %7, align 4
  br label %26

26:                                               ; preds = %19, %18, %12
  call void @llvm.lifetime.end.p0(i64 8, ptr %6) #7
  %27 = load i32, ptr %3, align 4
  ret i32 %27
}