; Function Attrs: nounwind uwtable
define range(i32 0, 2) i32 @ossl_quic_lcidm_retire_odcid(ptr noundef readonly captures(none) %0, ptr noundef %1) local_unnamed_addr #0 {
  %3 = tail call fastcc ptr @lcidm_upsert_conn(ptr noundef %0, ptr noundef %1)
  %4 = icmp eq ptr %3, null
  br i1 %4, label %20, label %5

5:                                                ; preds = %2
  %6 = getelementptr inbounds nuw i8, ptr %3, i64 24
  %7 = load ptr, ptr %6, align 8, !tbaa !31
  %8 = icmp eq ptr %7, null
  br i1 %8, label %20, label %9

9:                                                ; preds = %5
  %10 = getelementptr i8, ptr %0, i64 8
  %.val = load ptr, ptr %10, align 8, !tbaa !3
  %11 = tail call ptr @OPENSSL_LH_delete(ptr noundef %.val, ptr noundef nonnull %7) #11
  %12 = getelementptr inbounds nuw i8, ptr %7, i64 32
  %13 = load ptr, ptr %12, align 8, !tbaa !32
  %14 = getelementptr inbounds nuw i8, ptr %13, i64 8
  %15 = load ptr, ptr %14, align 8, !tbaa !27
  %16 = tail call ptr @OPENSSL_LH_delete(ptr noundef %15, ptr noundef nonnull %7) #11
  %17 = load ptr, ptr %12, align 8, !tbaa !32
  %18 = load i64, ptr %17, align 8, !tbaa !28
  %19 = add i64 %18, -1
  store i64 %19, ptr %17, align 8, !tbaa !28
  tail call void @CRYPTO_free(ptr noundef nonnull %7, ptr noundef nonnull @.str, i32 noundef 221) #11
  store ptr null, ptr %6, align 8, !tbaa !31
  br label %20

20:                                               ; preds = %5, %2, %9
  %.0 = phi i32 [ 1, %9 ], [ 0, %2 ], [ 0, %5 ]
  ret i32 %.0
}